#include <math.h>
#include <stdio.h>
#include <stdlib.h>
#include <string.h>

int main()
{
	int a[5]={11,11,11,11,11};
	int i=0,b,j;
	scanf("%d",&b);
	while(b>0)
	{
		a[i]=b%10;
		i++;
		b=b/10;
	}
	for (j=0;j<5;j++)
	{
		if (a[j]<10)
			printf("%d",a[j]);
	}
	printf("\n");
	return 0;
}
