; ModuleID = 'source-C-CXX/55/86.c'
source_filename = "source-C-CXX/55/86.c"
target datalayout = "e-m:e-p270:32:32-p271:32:32-p272:64:64-i64:64-f80:128-n8:16:32:64-S128"
target triple = "x86_64-pc-linux-gnu"

@__const.main.a = private unnamed_addr constant [5 x i32] [i32 11, i32 11, i32 11, i32 11, i32 11], align 16
@.str = private unnamed_addr constant [3 x i8] c"%d\00", align 1

; Function Attrs: nofree nounwind sspstrong uwtable
define dso_local i32 @main() local_unnamed_addr #0 {
  %1 = alloca [5 x i32], align 16
  %2 = alloca i32, align 4
  %3 = bitcast [5 x i32]* %1 to i8*
  call void @llvm.lifetime.start.p0i8(i64 20, i8* nonnull %3) #5
  call void @llvm.memcpy.p0i8.p0i8.i64(i8* noundef nonnull align 16 dereferenceable(20) %3, i8* noundef nonnull align 16 dereferenceable(20) bitcast ([5 x i32]* @__const.main.a to i8*), i64 20, i1 false)
  %4 = bitcast i32* %2 to i8*
  call void @llvm.lifetime.start.p0i8(i64 4, i8* nonnull %4) #5
  %5 = call i32 (i8*, ...) @__isoc99_scanf(i8* getelementptr inbounds ([3 x i8], [3 x i8]* @.str, i64 0, i64 0), i32* nonnull %2)
  %6 = load i32, i32* %2, align 4, !tbaa !5
  %7 = icmp sgt i32 %6, 0
  br i1 %7, label %12, label %22

8:                                                ; preds = %12
  store i32 %18, i32* %2, align 4, !tbaa !5
  %9 = getelementptr inbounds [5 x i32], [5 x i32]* %1, i64 0, i64 0
  %10 = load i32, i32* %9, align 16, !tbaa !5
  %11 = icmp slt i32 %10, 10
  br i1 %11, label %20, label %22

12:                                               ; preds = %0, %12
  %13 = phi i64 [ %17, %12 ], [ 0, %0 ]
  %14 = phi i32 [ %18, %12 ], [ %6, %0 ]
  %15 = urem i32 %14, 10
  %16 = getelementptr inbounds [5 x i32], [5 x i32]* %1, i64 0, i64 %13
  store i32 %15, i32* %16, align 4, !tbaa !5
  %17 = add nuw i64 %13, 1
  %18 = udiv i32 %14, 10
  %19 = icmp ult i32 %14, 10
  br i1 %19, label %8, label %12, !llvm.loop !9

20:                                               ; preds = %8
  %21 = call i32 (i8*, ...) @printf(i8* nonnull dereferenceable(1) getelementptr inbounds ([3 x i8], [3 x i8]* @.str, i64 0, i64 0), i32 %10)
  br label %22

22:                                               ; preds = %0, %8, %20
  %23 = getelementptr inbounds [5 x i32], [5 x i32]* %1, i64 0, i64 1
  %24 = load i32, i32* %23, align 4, !tbaa !5
  %25 = icmp slt i32 %24, 10
  br i1 %25, label %26, label %28

26:                                               ; preds = %22
  %27 = call i32 (i8*, ...) @printf(i8* nonnull dereferenceable(1) getelementptr inbounds ([3 x i8], [3 x i8]* @.str, i64 0, i64 0), i32 %24)
  br label %28

28:                                               ; preds = %26, %22
  %29 = getelementptr inbounds [5 x i32], [5 x i32]* %1, i64 0, i64 2
  %30 = load i32, i32* %29, align 8, !tbaa !5
  %31 = icmp slt i32 %30, 10
  br i1 %31, label %32, label %34

32:                                               ; preds = %28
  %33 = call i32 (i8*, ...) @printf(i8* nonnull dereferenceable(1) getelementptr inbounds ([3 x i8], [3 x i8]* @.str, i64 0, i64 0), i32 %30)
  br label %34

34:                                               ; preds = %32, %28
  %35 = getelementptr inbounds [5 x i32], [5 x i32]* %1, i64 0, i64 3
  %36 = load i32, i32* %35, align 4, !tbaa !5
  %37 = icmp slt i32 %36, 10
  br i1 %37, label %38, label %40

38:                                               ; preds = %34
  %39 = call i32 (i8*, ...) @printf(i8* nonnull dereferenceable(1) getelementptr inbounds ([3 x i8], [3 x i8]* @.str, i64 0, i64 0), i32 %36)
  br label %40

40:                                               ; preds = %38, %34
  %41 = getelementptr inbounds [5 x i32], [5 x i32]* %1, i64 0, i64 4
  %42 = load i32, i32* %41, align 16, !tbaa !5
  %43 = icmp slt i32 %42, 10
  br i1 %43, label %44, label %46

44:                                               ; preds = %40
  %45 = call i32 (i8*, ...) @printf(i8* nonnull dereferenceable(1) getelementptr inbounds ([3 x i8], [3 x i8]* @.str, i64 0, i64 0), i32 %42)
  br label %46

46:                                               ; preds = %44, %40
  %47 = call i32 @putchar(i32 10)
  call void @llvm.lifetime.end.p0i8(i64 4, i8* nonnull %4) #5
  call void @llvm.lifetime.end.p0i8(i64 20, i8* nonnull %3) #5
  ret i32 0
}

; Function Attrs: argmemonly mustprogress nofree nosync nounwind willreturn
declare void @llvm.lifetime.start.p0i8(i64 immarg, i8* nocapture) #1

; Function Attrs: argmemonly mustprogress nofree nounwind willreturn
declare void @llvm.memcpy.p0i8.p0i8.i64(i8* noalias nocapture writeonly, i8* noalias nocapture readonly, i64, i1 immarg) #2

; Function Attrs: nofree nounwind
declare noundef i32 @__isoc99_scanf(i8* nocapture noundef readonly, ...) local_unnamed_addr #3

; Function Attrs: nofree nounwind
declare noundef i32 @printf(i8* nocapture noundef readonly, ...) local_unnamed_addr #3

; Function Attrs: argmemonly mustprogress nofree nosync nounwind willreturn
declare void @llvm.lifetime.end.p0i8(i64 immarg, i8* nocapture) #1

; Function Attrs: nofree nounwind
declare noundef i32 @putchar(i32 noundef) local_unnamed_addr #4


!llvm.module.flags = !{!0, !1, !2, !3}
!llvm.ident = !{!4}

!0 = !{i32 1, !"wchar_size", i32 4}
!1 = !{i32 7, !"PIC Level", i32 2}
!2 = !{i32 7, !"PIE Level", i32 2}
!3 = !{i32 7, !"uwtable", i32 1}
!4 = !{!"clang version 13.0.0"}
!5 = !{!6, !6, i64 0}
!6 = !{!"int", !7, i64 0}
!7 = !{!"omnipotent char", !8, i64 0}
!8 = !{!"Simple C/C++ TBAA"}
!9 = distinct !{!9, !10}
!10 = !{!"llvm.loop.mustprogress"}
